	.file	"msg.c"
	.text
.Ltext0:
.globl kpl_msg_send
	.type	kpl_msg_send, @function
kpl_msg_send:
.LFB0:
	.file 1 "msg.c"
	.loc 1 11 0
	.cfi_startproc
	pushq	%rbp
.LCFI0:
	.cfi_def_cfa_offset 16
	movq	%rsp, %rbp
	.cfi_offset 6, -16
.LCFI1:
	.cfi_def_cfa_register 6
	subq	$32, %rsp
	movl	%edi, %edx
	movl	%esi, %eax
	movb	%dl, -20(%rbp)
	movb	%al, -24(%rbp)
	.loc 1 12 0
	movsbl	-20(%rbp),%eax
	movl	%eax, %edi
	call	kpl_task_get_port
	movq	%rax, -8(%rbp)
	.loc 1 14 0
	cmpq	$0, -8(%rbp)
	je	.L2
	movq	-8(%rbp), %rax
	movzbl	(%rax), %eax
	testb	%al, %al
	je	.L3
.L2:
	.loc 1 15 0
	movl	$0, %eax
	jmp	.L4
.L3:
	.loc 1 17 0
	movl	$0, %eax
	call	kpl_task_get_current
	movq	-8(%rbp), %rdx
	movb	%al, 1(%rdx)
	.loc 1 18 0
	movq	-8(%rbp), %rax
	movzbl	-20(%rbp), %edx
	movb	%dl, 2(%rax)
	.loc 1 19 0
	movq	-8(%rbp), %rax
	movzbl	-24(%rbp), %edx
	movb	%dl, 3(%rax)
	.loc 1 20 0
	movq	-8(%rbp), %rax
	movb	$1, (%rax)
	.loc 1 22 0
	movl	$1, %eax
.L4:
	.loc 1 23 0
	leave
	ret
	.cfi_endproc
.LFE0:
	.size	kpl_msg_send, .-kpl_msg_send
.globl kpl_msg_recv
	.type	kpl_msg_recv, @function
kpl_msg_recv:
.LFB1:
	.loc 1 26 0
	.cfi_startproc
	pushq	%rbp
.LCFI2:
	.cfi_def_cfa_offset 16
	movq	%rsp, %rbp
	.cfi_offset 6, -16
.LCFI3:
	.cfi_def_cfa_register 6
	subq	$32, %rsp
	movq	%rdi, -24(%rbp)
	.loc 1 27 0
	movl	$0, %eax
	call	kpl_task_get_current
	movsbl	%al,%eax
	movl	%eax, %edi
	call	kpl_task_get_port
	movq	%rax, -8(%rbp)
	.loc 1 29 0
	movq	-8(%rbp), %rax
	movzbl	(%rax), %eax
	testb	%al, %al
	jne	.L7
	.loc 1 30 0
	movl	$0, %eax
	jmp	.L8
.L7:
	.loc 1 32 0
	movq	-8(%rbp), %rax
	movb	$0, (%rax)
	.loc 1 33 0
	movq	-8(%rbp), %rax
	leaq	1(%rax), %rdx
	movq	-24(%rbp), %rax
	movq	%rdx, (%rax)
	.loc 1 34 0
	movl	$1, %eax
.L8:
	.loc 1 35 0
	leave
	ret
	.cfi_endproc
.LFE1:
	.size	kpl_msg_recv, .-kpl_msg_recv
.Letext0:
	.section	.note.GNU-stack,"",@progbits
