	.file	"task.c"
	.text
.Ltext0:
	.local	tasks_base
	.comm	tasks_base,120,32
	.local	cur_task
	.comm	cur_task,8,8
.globl kpl_task_get_tid
	.type	kpl_task_get_tid, @function
kpl_task_get_tid:
.LFB0:
	.file 1 "task.c"
	.loc 1 26 0
	.cfi_startproc
	pushq	%rbp
.LCFI0:
	.cfi_def_cfa_offset 16
	movq	%rsp, %rbp
	.cfi_offset 6, -16
.LCFI1:
	.cfi_def_cfa_register 6
	movq	%rdi, -8(%rbp)
	.loc 1 27 0
	movq	-8(%rbp), %rdx
	movl	$tasks_base, %eax
	movq	%rdx, %rcx
	subq	%rax, %rcx
	movq	%rcx, %rax
	movq	%rax, %rdx
	sarq	$3, %rdx
	movabsq	$-6148914691236517205, %rax
	imulq	%rdx, %rax
	.loc 1 28 0
	leave
	ret
	.cfi_endproc
.LFE0:
	.size	kpl_task_get_tid, .-kpl_task_get_tid
.globl kpl_task_create
	.type	kpl_task_create, @function
kpl_task_create:
.LFB1:
	.loc 1 36 0
	.cfi_startproc
	pushq	%rbp
.LCFI2:
	.cfi_def_cfa_offset 16
	movq	%rsp, %rbp
	.cfi_offset 6, -16
.LCFI3:
	.cfi_def_cfa_register 6
	subq	$32, %rsp
	movq	%rdi, -24(%rbp)
	.loc 1 39 0
	movl	$0, %eax
	call	_task_get_free_slot
	movq	%rax, -8(%rbp)
	.loc 1 41 0
	cmpq	$0, -8(%rbp)
	jne	.L4
	.loc 1 42 0
	movl	$-1, %eax
	jmp	.L5
.L4:
	.loc 1 44 0
	movq	-8(%rbp), %rax
	movq	-24(%rbp), %rdx
	movq	%rdx, 8(%rax)
	.loc 1 45 0
	movq	-8(%rbp), %rax
	movq	$0, (%rax)
	.loc 1 47 0
	movq	-8(%rbp), %rax
	movq	%rax, %rdi
	call	kpl_task_get_tid
.L5:
	.loc 1 48 0
	leave
	ret
	.cfi_endproc
.LFE1:
	.size	kpl_task_create, .-kpl_task_create
.globl kpl_task_exit
	.type	kpl_task_exit, @function
kpl_task_exit:
.LFB2:
	.loc 1 55 0
	.cfi_startproc
	pushq	%rbp
.LCFI4:
	.cfi_def_cfa_offset 16
	movq	%rsp, %rbp
	.cfi_offset 6, -16
.LCFI5:
	.cfi_def_cfa_register 6
	subq	$32, %rsp
	movl	%edi, %eax
	movb	%al, -20(%rbp)
	.loc 1 56 0
	movsbl	-20(%rbp),%eax
	movl	%eax, %edi
	call	_task_get
	movq	%rax, -8(%rbp)
	.loc 1 58 0
	cmpq	$0, -8(%rbp)
	je	.L9
	.loc 1 59 0
	movq	-8(%rbp), %rax
	movq	$0, 8(%rax)
	.loc 1 60 0
	movq	-8(%rbp), %rax
	movb	$0, 16(%rax)
.L9:
	.loc 1 62 0
	leave
	ret
	.cfi_endproc
.LFE2:
	.size	kpl_task_exit, .-kpl_task_exit
.globl kpl_task_get_port
	.type	kpl_task_get_port, @function
kpl_task_get_port:
.LFB3:
	.loc 1 70 0
	.cfi_startproc
	pushq	%rbp
.LCFI6:
	.cfi_def_cfa_offset 16
	movq	%rsp, %rbp
	.cfi_offset 6, -16
.LCFI7:
	.cfi_def_cfa_register 6
	subq	$32, %rsp
	movl	%edi, %eax
	movb	%al, -20(%rbp)
	.loc 1 71 0
	movsbl	-20(%rbp),%eax
	movl	%eax, %edi
	call	_task_get
	movq	%rax, -8(%rbp)
	.loc 1 73 0
	movq	-8(%rbp), %rax
	movq	8(%rax), %rax
	testq	%rax, %rax
	je	.L11
	.loc 1 74 0
	movq	-8(%rbp), %rax
	addq	$16, %rax
	jmp	.L12
.L11:
	.loc 1 76 0
	movl	$0, %eax
.L12:
	.loc 1 77 0
	leave
	ret
	.cfi_endproc
.LFE3:
	.size	kpl_task_get_port, .-kpl_task_get_port
.globl kpl_task_get_current
	.type	kpl_task_get_current, @function
kpl_task_get_current:
.LFB4:
	.loc 1 83 0
	.cfi_startproc
	pushq	%rbp
.LCFI8:
	.cfi_def_cfa_offset 16
	movq	%rsp, %rbp
	.cfi_offset 6, -16
.LCFI9:
	.cfi_def_cfa_register 6
	.loc 1 84 0
	movq	cur_task(%rip), %rax
	movq	%rax, %rdi
	call	kpl_task_get_tid
	.loc 1 85 0
	leave
	ret
	.cfi_endproc
.LFE4:
	.size	kpl_task_get_current, .-kpl_task_get_current
.globl main
	.type	main, @function
main:
.LFB5:
	.loc 1 88 0
	.cfi_startproc
	pushq	%rbp
.LCFI10:
	.cfi_def_cfa_offset 16
	movq	%rsp, %rbp
	.cfi_offset 6, -16
.LCFI11:
	.cfi_def_cfa_register 6
.L20:
	.loc 1 90 0
	movq	$tasks_base, cur_task(%rip)
	jmp	.L17
.L19:
	.loc 1 93 0
	movq	cur_task(%rip), %rax
	movq	8(%rax), %rax
	testq	%rax, %rax
	je	.L18
	.loc 1 94 0
	movq	cur_task(%rip), %rax
	movq	8(%rax), %rdx
	movq	cur_task(%rip), %rax
	movq	%rax, %rdi
	call	*%rdx
	.loc 1 95 0
	movl	$1, %edi
	movl	$0, %eax
	call	sleep
.L18:
	.loc 1 92 0
	movq	cur_task(%rip), %rax
	addq	$24, %rax
	movq	%rax, cur_task(%rip)
.L17:
	.loc 1 91 0
	movq	cur_task(%rip), %rdx
	movl	$tasks_base+120, %eax
	.loc 1 90 0
	cmpq	%rax, %rdx
	jb	.L19
	.loc 1 98 0
	jmp	.L20
	.cfi_endproc
.LFE5:
	.size	main, .-main
	.type	_task_get_free_slot, @function
_task_get_free_slot:
.LFB6:
	.loc 1 104 0
	.cfi_startproc
	pushq	%rbp
.LCFI12:
	.cfi_def_cfa_offset 16
	movq	%rsp, %rbp
	.cfi_offset 6, -16
.LCFI13:
	.cfi_def_cfa_register 6
	pushq	%rbx
	.loc 1 107 0
	movl	$0, %ebx
	.cfi_offset 3, -24
	jmp	.L23
.L26:
	.loc 1 108 0
	movsbl	%bl,%eax
	movslq	%eax,%rdx
	movq	%rdx, %rax
	addq	%rax, %rax
	addq	%rdx, %rax
	salq	$3, %rax
	movq	tasks_base+8(%rax), %rax
	testq	%rax, %rax
	jne	.L24
	.loc 1 109 0
	movsbq	%bl,%rdx
	movq	%rdx, %rax
	addq	%rax, %rax
	addq	%rdx, %rax
	salq	$3, %rax
	addq	$tasks_base, %rax
	jmp	.L25
.L24:
	.loc 1 107 0
	addl	$1, %ebx
.L23:
	cmpb	$4, %bl
	jle	.L26
	.loc 1 111 0
	movl	$0, %eax
.L25:
	.loc 1 112 0
	popq	%rbx
	leave
	ret
	.cfi_endproc
.LFE6:
	.size	_task_get_free_slot, .-_task_get_free_slot
	.type	_task_get, @function
_task_get:
.LFB7:
	.loc 1 115 0
	.cfi_startproc
	pushq	%rbp
.LCFI14:
	.cfi_def_cfa_offset 16
	movq	%rsp, %rbp
	.cfi_offset 6, -16
.LCFI15:
	.cfi_def_cfa_register 6
	movl	%edi, %eax
	movb	%al, -4(%rbp)
	.loc 1 116 0
	cmpb	$0, -4(%rbp)
	js	.L29
	cmpb	$4, -4(%rbp)
	jle	.L30
.L29:
	.loc 1 117 0
	movl	$0, %eax
	jmp	.L31
.L30:
	.loc 1 119 0
	movsbq	-4(%rbp),%rdx
	movq	%rdx, %rax
	addq	%rax, %rax
	addq	%rdx, %rax
	salq	$3, %rax
	addq	$tasks_base, %rax
.L31:
	.loc 1 120 0
	leave
	ret
	.cfi_endproc
.LFE7:
	.size	_task_get, .-_task_get
.Letext0:
	.section	.note.GNU-stack,"",@progbits
