	.file	"test.c"
	.text
.Ltext0:
	.comm	t1,8,8
	.comm	dst,1,1
	.section	.rodata
.LC0:
	.string	"WAIT: Task=%d Line=%d\n"
	.align 8
.LC1:
	.string	"Llego mensaje desde %hhu data=%hhu\n"
	.text
.globl task0
	.type	task0, @function
task0:
.LFB0:
	.file 1 "test.c"
	.loc 1 9 0
	.cfi_startproc
	pushq	%rbp
.LCFI0:
	.cfi_def_cfa_offset 16
	movq	%rsp, %rbp
	.cfi_offset 6, -16
.LCFI1:
	.cfi_def_cfa_register 6
	subq	$32, %rsp
	movq	%rdi, -24(%rbp)
	.loc 1 10 0
	movq	-24(%rbp), %rax
	movq	(%rax), %rax
	movq	%rax, -8(%rbp)
	movq	-24(%rbp), %rax
	movq	$0, (%rax)
	cmpq	$0, -8(%rbp)
	je	.L2
	movq	-8(%rbp), %rax
	jmp	*%rax
.L2:
.LBB2:
	.loc 1 13 0
	movl	$0, %edi
	call	time
	movq	%rax, t1(%rip)
.L3:
	.loc 1 15 0
	leaq	-16(%rbp), %rax
	movq	%rax, %rdi
	call	kpl_msg_recv
	testb	%al, %al
	jne	.L4
	movq	-24(%rbp), %rax
	movq	$.L3, (%rax)
	movq	-24(%rbp), %rax
	movq	%rax, %rdi
	call	kpl_task_get_tid
	movsbl	%al,%ecx
	movl	$.LC0, %eax
	movl	$15, %edx
	movl	%ecx, %esi
	movq	%rax, %rdi
	movl	$0, %eax
	call	printf
	jmp	.L7
.L4:
	.loc 1 16 0
	movq	-16(%rbp), %rax
	movzbl	2(%rax), %eax
	movzbl	%al, %edx
	movq	-16(%rbp), %rax
	movzbl	(%rax), %eax
	movsbl	%al,%ecx
	movl	$.LC1, %eax
	movl	%ecx, %esi
	movq	%rax, %rdi
	movl	$0, %eax
	call	printf
.L6:
	.loc 1 17 0
	movl	$0, %edi
	call	time
	movq	t1(%rip), %rdx
	subq	%rdx, %rax
	cmpq	$4, %rax
	jg	.L7
	movq	-24(%rbp), %rax
	movq	$.L6, (%rax)
	movq	-24(%rbp), %rax
	movq	%rax, %rdi
	call	kpl_task_get_tid
	movsbl	%al,%ecx
	movl	$.LC0, %eax
	movl	$17, %edx
	movl	%ecx, %esi
	movq	%rax, %rdi
	movl	$0, %eax
	call	printf
	nop
.L7:
.LBE2:
	.loc 1 19 0
	leave
	ret
	.cfi_endproc
.LFE0:
	.size	task0, .-task0
	.section	.rodata
.LC2:
	.string	"Enviado"
	.text
.globl task1
	.type	task1, @function
task1:
.LFB1:
	.loc 1 22 0
	.cfi_startproc
	pushq	%rbp
.LCFI2:
	.cfi_def_cfa_offset 16
	movq	%rsp, %rbp
	.cfi_offset 6, -16
.LCFI3:
	.cfi_def_cfa_register 6
	subq	$32, %rsp
	movq	%rdi, -24(%rbp)
	.loc 1 23 0
	movq	-24(%rbp), %rax
	movq	(%rax), %rax
	movq	%rax, -8(%rbp)
	movq	-24(%rbp), %rax
	movq	$0, (%rax)
	cmpq	$0, -8(%rbp)
.L9:
	.loc 1 24 0
	movzbl	dst(%rip), %eax
	movsbl	%al,%eax
	movl	$88, %esi
	movl	%eax, %edi
	call	kpl_msg_send
	testb	%al, %al
	jne	.L10
	movq	-24(%rbp), %rax
	movq	$.L9, (%rax)
	movq	-24(%rbp), %rax
	movq	%rax, %rdi
	call	kpl_task_get_tid
	movsbl	%al,%ecx
	movl	$.LC0, %eax
	movl	$24, %edx
	movl	%ecx, %esi
	movq	%rax, %rdi
	movl	$0, %eax
	call	printf
	jmp	.L12
.L10:
	.loc 1 25 0
	movl	$.LC2, %edi
	call	puts
.L12:
	.loc 1 27 0
	leave
	ret
	.cfi_endproc
.LFE1:
	.size	task1, .-task1
.globl init0
	.type	init0, @function
init0:
.LFB2:
	.loc 1 30 0
	.cfi_startproc
	pushq	%rbp
.LCFI4:
	.cfi_def_cfa_offset 16
	movq	%rsp, %rbp
	.cfi_offset 6, -16
.LCFI5:
	.cfi_def_cfa_register 6
	.loc 1 31 0
	movl	$task0, %edi
	call	kpl_task_create
	movb	%al, dst(%rip)
	.loc 1 32 0
	movl	$task1, %edi
	call	kpl_task_create
	.loc 1 33 0
	leave
	ret
	.cfi_endproc
.LFE2:
	.size	init0, .-init0
	.section	.ctors,"aw",@progbits
	.align 8
	.quad	init0
	.section	.rodata
.LC3:
	.string	"Test"
	.text
.globl init1
	.type	init1, @function
init1:
.LFB3:
	.loc 1 36 0
	.cfi_startproc
	pushq	%rbp
.LCFI6:
	.cfi_def_cfa_offset 16
	movq	%rsp, %rbp
	.cfi_offset 6, -16
.LCFI7:
	.cfi_def_cfa_register 6
	.loc 1 37 0
	movl	$.LC3, %edi
	call	puts
	.loc 1 38 0
	leave
	ret
	.cfi_endproc
.LFE3:
	.size	init1, .-init1
	.section	.ctors
	.align 8
	.quad	init1
	.text
.Letext0:
	.section	.note.GNU-stack,"",@progbits
